target datalayout = "e-m:e-p270:32:32-p271:32:32-p272:64:64-i64:64-i128:128-f80:128-n8:16:32:64-S128"
target triple = "x86_64-unknown-linux-gnu"

%"class.Imf_3_2::SampleCountChannel" = type { %"class.Imf_3_2::ImageChannel", ptr, ptr, ptr, ptr, i64, i64, i64 }
%"class.Imf_3_2::ImageChannel" = type { ptr, ptr, i32, i32, i8, i32, i32, i64 }
%"class.Imath_3_2::Box" = type { %"class.Imath_3_2::Vec2", %"class.Imath_3_2::Vec2" }
%"class.Imath_3_2::Vec2" = type { i32, i32 }
%"class.Imf_3_2::ImageLevel" = type { ptr, ptr, i32, i32, %"class.Imath_3_2::Box" }

; Function Attrs: mustprogress nounwind uwtable
define linkonce_odr hidden noundef nonnull align 4 dereferenceable(8) ptr @_ZN9Imath_3_24Vec2IiEaSERKS1_(ptr noundef nonnull align 4 dereferenceable(8) %this, ptr noundef nonnull align 4 dereferenceable(8) %v) #5 comdat align 2 {
entry:
  %this.addr = alloca ptr, align 8
  %v.addr = alloca ptr, align 8
  store ptr %this, ptr %this.addr, align 8
  store ptr %v, ptr %v.addr, align 8
  %this1 = load ptr, ptr %this.addr, align 8
  %0 = load ptr, ptr %v.addr, align 8
  %x = getelementptr inbounds %"class.Imath_3_2::Vec2", ptr %0, i32 0, i32 0
  %1 = load i32, ptr %x, align 4
  %x2 = getelementptr inbounds %"class.Imath_3_2::Vec2", ptr %this1, i32 0, i32 0
  store i32 %1, ptr %x2, align 4
  %2 = load ptr, ptr %v.addr, align 8
  %y = getelementptr inbounds %"class.Imath_3_2::Vec2", ptr %2, i32 0, i32 1
  %3 = load i32, ptr %y, align 4
  %y3 = getelementptr inbounds %"class.Imath_3_2::Vec2", ptr %this1, i32 0, i32 1
  store i32 %3, ptr %y3, align 4
  ret ptr %this1
}

; Function Attrs: mustprogress nounwind uwtable
define linkonce_odr hidden void @_ZN9Imath_3_24Vec2IiEC2Ev(ptr noundef nonnull align 4 dereferenceable(8) %this) unnamed_addr #5 comdat align 2 {
entry:
  %this.addr = alloca ptr, align 8
  store ptr %this, ptr %this.addr, align 8
  ret void
}

; Function Attrs: mustprogress uwtable
define noundef nonnull align 8 dereferenceable(192) ptr @_ZN7Imf_3_218SampleCountChannel9deepLevelEv(ptr noundef nonnull align 8 dereferenceable(104) %this) #4 align 2 {
entry:
  %this.addr = alloca ptr, align 8
  store ptr %this, ptr %this.addr, align 8
  %this1 = load ptr, ptr %this.addr, align 8
  %call = call noundef nonnull align 8 dereferenceable(40) ptr @_ZN7Imf_3_212ImageChannel5levelEv(ptr noundef nonnull align 8 dereferenceable(48) %this1)
  ret ptr %call
}

; Function Attrs: mustprogress nounwind uwtable
define internal noundef i64 @_ZN7Imf_3_212_GLOBAL__N_117roundBufferSizeUpEm(i64 noundef %n) #5 {
entry:
  %n.addr = alloca i64, align 8
  store i64 %n, ptr %n.addr, align 8
  %0 = load i64, ptr %n.addr, align 8
  %1 = load i64, ptr %n.addr, align 8
  %div = udiv i64 %1, 2
  %add = add i64 %0, %div
  ret i64 %add
}

; Function Attrs: mustprogress nounwind uwtable
define linkonce_odr hidden void @_ZN9Imath_3_23BoxINS_4Vec2IiEEEC2ERKS2_S5_(ptr noundef nonnull align 4 dereferenceable(16) %this, ptr noundef nonnull align 4 dereferenceable(8) %minT, ptr noundef nonnull align 4 dereferenceable(8) %maxT) unnamed_addr #5 comdat align 2 {
entry:
  %this.addr = alloca ptr, align 8
  %minT.addr = alloca ptr, align 8
  %maxT.addr = alloca ptr, align 8
  store ptr %this, ptr %this.addr, align 8
  store ptr %minT, ptr %minT.addr, align 8
  store ptr %maxT, ptr %maxT.addr, align 8
  %this1 = load ptr, ptr %this.addr, align 8
  %min = getelementptr inbounds %"class.Imath_3_2::Box", ptr %this1, i32 0, i32 0
  call void @_ZN9Imath_3_24Vec2IiEC2Ev(ptr noundef nonnull align 4 dereferenceable(8) %min) #3
  %max = getelementptr inbounds %"class.Imath_3_2::Box", ptr %this1, i32 0, i32 1
  call void @_ZN9Imath_3_24Vec2IiEC2Ev(ptr noundef nonnull align 4 dereferenceable(8) %max) #3
  %0 = load ptr, ptr %minT.addr, align 8
  %min2 = getelementptr inbounds %"class.Imath_3_2::Box", ptr %this1, i32 0, i32 0
  %call = call noundef nonnull align 4 dereferenceable(8) ptr @_ZN9Imath_3_24Vec2IiEaSERKS1_(ptr noundef nonnull align 4 dereferenceable(8) %min2, ptr noundef nonnull align 4 dereferenceable(8) %0) #3
  %1 = load ptr, ptr %maxT.addr, align 8
  %max3 = getelementptr inbounds %"class.Imath_3_2::Box", ptr %this1, i32 0, i32 1
  %call4 = call noundef nonnull align 4 dereferenceable(8) ptr @_ZN9Imath_3_24Vec2IiEaSERKS1_(ptr noundef nonnull align 4 dereferenceable(8) %max3, ptr noundef nonnull align 4 dereferenceable(8) %1) #3
  ret void
}

; Function Attrs: mustprogress nounwind uwtable
define linkonce_odr hidden void @_ZN9Imath_3_24Vec2IiEC2Eii(ptr noundef nonnull align 4 dereferenceable(8) %this, i32 noundef %a, i32 noundef %b) unnamed_addr #5 comdat align 2 {
entry:
  %this.addr = alloca ptr, align 8
  %a.addr = alloca i32, align 4
  %b.addr = alloca i32, align 4
  store ptr %this, ptr %this.addr, align 8
  store i32 %a, ptr %a.addr, align 4
  store i32 %b, ptr %b.addr, align 4
  %this1 = load ptr, ptr %this.addr, align 8
  %x = getelementptr inbounds %"class.Imath_3_2::Vec2", ptr %this1, i32 0, i32 0
  %0 = load i32, ptr %a.addr, align 4
  store i32 %0, ptr %x, align 4
  %y = getelementptr inbounds %"class.Imath_3_2::Vec2", ptr %this1, i32 0, i32 1
  %1 = load i32, ptr %b.addr, align 4
  store i32 %1, ptr %y, align 4
  ret void
}

; Function Attrs: mustprogress nounwind uwtable
define linkonce_odr hidden noundef nonnull align 8 dereferenceable(104) ptr @_ZN7Imf_3_210ImageLevel5imageEv(ptr noundef nonnull align 8 dereferenceable(40) %this) #5 comdat align 2 {
entry:
  %this.addr = alloca ptr, align 8
  store ptr %this, ptr %this.addr, align 8
  %this1 = load ptr, ptr %this.addr, align 8
  %_image = getelementptr inbounds %"class.Imf_3_2::ImageLevel", ptr %this1, i32 0, i32 1
  %0 = load ptr, ptr %_image, align 8
  ret ptr %0
}

; Function Attrs: mustprogress nounwind uwtable
define linkonce_odr hidden noundef nonnull align 8 dereferenceable(40) ptr @_ZN7Imf_3_212ImageChannel5levelEv(ptr noundef nonnull align 8 dereferenceable(48) %this) #5 comdat align 2 {
entry:
  %this.addr = alloca ptr, align 8
  store ptr %this, ptr %this.addr, align 8
  %this1 = load ptr, ptr %this.addr, align 8
  %_level = getelementptr inbounds %"class.Imf_3_2::ImageChannel", ptr %this1, i32 0, i32 1
  %0 = load ptr, ptr %_level, align 8
  ret ptr %0
}

; Function Attrs: mustprogress nounwind uwtable
define linkonce_odr hidden noundef i64 @_ZNK7Imf_3_212ImageChannel9numPixelsEv(ptr noundef nonnull align 8 dereferenceable(48) %this) #5 comdat align 2 {
entry:
  %this.addr = alloca ptr, align 8
  store ptr %this, ptr %this.addr, align 8
  %this1 = load ptr, ptr %this.addr, align 8
  %_numPixels = getelementptr inbounds %"class.Imf_3_2::ImageChannel", ptr %this1, i32 0, i32 7
  %0 = load i64, ptr %_numPixels, align 8
  ret i64 %0
}

; Function Attrs: mustprogress uwtable
define void @_ZN7Imf_3_218SampleCountChannel5clearEv(ptr noundef nonnull align 8 dereferenceable(104) %this) #4 align 2 personality ptr @__gxx_personality_v0 {
entry:
  %this.addr = alloca ptr, align 8
  %i = alloca i64, align 8
  %exn.slot = alloca ptr, align 8
  %ehselector.slot = alloca i32, align 4
  %ref.tmp = alloca %"class.Imath_3_2::Box", align 4
  %ref.tmp15 = alloca %"class.Imath_3_2::Vec2", align 4
  %ref.tmp16 = alloca %"class.Imath_3_2::Vec2", align 4
  store ptr %this, ptr %this.addr, align 8
  %this1 = load ptr, ptr %this.addr, align 8
  store i64 0, ptr %i, align 8
  br label %for.cond

for.cond:                                         ; preds = %for.inc, %entry
  %0 = load i64, ptr %i, align 8
  %call = invoke noundef i64 @_ZNK7Imf_3_212ImageChannel9numPixelsEv(ptr noundef nonnull align 8 dereferenceable(48) %this1)
          to label %invoke.cont unwind label %lpad

invoke.cont:                                      ; preds = %for.cond
  %cmp = icmp ult i64 %0, %call
  br i1 %cmp, label %for.body, label %for.end

for.body:                                         ; preds = %invoke.cont
  %_numSamples = getelementptr inbounds %"class.Imf_3_2::SampleCountChannel", ptr %this1, i32 0, i32 1
  %1 = load ptr, ptr %_numSamples, align 8
  %2 = load i64, ptr %i, align 8
  %arrayidx = getelementptr inbounds i32, ptr %1, i64 %2
  store i32 0, ptr %arrayidx, align 4
  %_sampleListSizes = getelementptr inbounds %"class.Imf_3_2::SampleCountChannel", ptr %this1, i32 0, i32 3
  %3 = load ptr, ptr %_sampleListSizes, align 8
  %4 = load i64, ptr %i, align 8
  %arrayidx2 = getelementptr inbounds i32, ptr %3, i64 %4
  store i32 0, ptr %arrayidx2, align 4
  %_sampleListPositions = getelementptr inbounds %"class.Imf_3_2::SampleCountChannel", ptr %this1, i32 0, i32 4
  %5 = load ptr, ptr %_sampleListPositions, align 8
  %6 = load i64, ptr %i, align 8
  %arrayidx3 = getelementptr inbounds i64, ptr %5, i64 %6
  store i64 0, ptr %arrayidx3, align 8
  br label %for.inc

for.inc:                                          ; preds = %for.body
  %7 = load i64, ptr %i, align 8
  %inc = add i64 %7, 1
  store i64 %inc, ptr %i, align 8
  br label %for.cond, !llvm.loop !8

lpad:                                             ; preds = %invoke.cont7, %invoke.cont5, %for.end, %for.cond
  %8 = landingpad { ptr, i32 }
          catch ptr null
  %9 = extractvalue { ptr, i32 } %8, 0
  store ptr %9, ptr %exn.slot, align 8
  %10 = extractvalue { ptr, i32 } %8, 1
  store i32 %10, ptr %ehselector.slot, align 4
  br label %catch

catch:                                            ; preds = %lpad
  %exn = load ptr, ptr %exn.slot, align 8
  %11 = call ptr @__cxa_begin_catch(ptr %exn) #3
  %call12 = invoke noundef nonnull align 8 dereferenceable(40) ptr @_ZN7Imf_3_212ImageChannel5levelEv(ptr noundef nonnull align 8 dereferenceable(48) %this1)
          to label %invoke.cont11 unwind label %lpad10

invoke.cont11:                                    ; preds = %catch
  %call14 = invoke noundef nonnull align 8 dereferenceable(104) ptr @_ZN7Imf_3_210ImageLevel5imageEv(ptr noundef nonnull align 8 dereferenceable(40) %call12)
          to label %invoke.cont13 unwind label %lpad10

invoke.cont13:                                    ; preds = %invoke.cont11
  call void @_ZN9Imath_3_24Vec2IiEC2Eii(ptr noundef nonnull align 4 dereferenceable(8) %ref.tmp15, i32 noundef 0, i32 noundef 0) #3
  call void @_ZN9Imath_3_24Vec2IiEC2Eii(ptr noundef nonnull align 4 dereferenceable(8) %ref.tmp16, i32 noundef -1, i32 noundef -1) #3
  call void @_ZN9Imath_3_23BoxINS_4Vec2IiEEEC2ERKS2_S5_(ptr noundef nonnull align 4 dereferenceable(16) %ref.tmp, ptr noundef nonnull align 4 dereferenceable(8) %ref.tmp15, ptr noundef nonnull align 4 dereferenceable(8) %ref.tmp16) #3
  invoke void @_ZN7Imf_3_25Image6resizeERKN9Imath_3_23BoxINS1_4Vec2IiEEEE(ptr noundef nonnull align 8 dereferenceable(104) %call14, ptr noundef nonnull align 4 dereferenceable(16) %ref.tmp)
          to label %invoke.cont17 unwind label %lpad10

invoke.cont17:                                    ; preds = %invoke.cont13
  invoke void @__cxa_rethrow() #12
          to label %unreachable unwind label %lpad10

for.end:                                          ; preds = %invoke.cont
  %_totalNumSamples = getelementptr inbounds %"class.Imf_3_2::SampleCountChannel", ptr %this1, i32 0, i32 5
  store i64 0, ptr %_totalNumSamples, align 8
  %_totalSamplesOccupied = getelementptr inbounds %"class.Imf_3_2::SampleCountChannel", ptr %this1, i32 0, i32 6
  store i64 0, ptr %_totalSamplesOccupied, align 8
  %_totalSamplesOccupied4 = getelementptr inbounds %"class.Imf_3_2::SampleCountChannel", ptr %this1, i32 0, i32 6
  %12 = load i64, ptr %_totalSamplesOccupied4, align 8
  %call6 = invoke noundef i64 @_ZN7Imf_3_212_GLOBAL__N_117roundBufferSizeUpEm(i64 noundef %12)
          to label %invoke.cont5 unwind label %lpad

invoke.cont5:                                     ; preds = %for.end
  %_sampleBufferSize = getelementptr inbounds %"class.Imf_3_2::SampleCountChannel", ptr %this1, i32 0, i32 7
  store i64 %call6, ptr %_sampleBufferSize, align 8
  %call8 = invoke noundef nonnull align 8 dereferenceable(192) ptr @_ZN7Imf_3_218SampleCountChannel9deepLevelEv(ptr noundef nonnull align 8 dereferenceable(104) %this1)
          to label %invoke.cont7 unwind label %lpad

invoke.cont7:                                     ; preds = %invoke.cont5
  invoke void @_ZN7Imf_3_214DeepImageLevel21initializeSampleListsEv(ptr noundef nonnull align 8 dereferenceable(192) %call8)
          to label %invoke.cont9 unwind label %lpad

invoke.cont9:                                     ; preds = %invoke.cont7
  br label %try.cont

lpad10:                                           ; preds = %invoke.cont17, %invoke.cont13, %invoke.cont11, %catch
  %13 = landingpad { ptr, i32 }
          cleanup
  %14 = extractvalue { ptr, i32 } %13, 0
  store ptr %14, ptr %exn.slot, align 8
  %15 = extractvalue { ptr, i32 } %13, 1
  store i32 %15, ptr %ehselector.slot, align 4
  invoke void @__cxa_end_catch()
          to label %invoke.cont18 unwind label %terminate.lpad

invoke.cont18:                                    ; preds = %lpad10
  br label %eh.resume

try.cont:                                         ; preds = %invoke.cont9
  ret void

eh.resume:                                        ; preds = %invoke.cont18
  %exn19 = load ptr, ptr %exn.slot, align 8
  %sel = load i32, ptr %ehselector.slot, align 4
  %lpad.val = insertvalue { ptr, i32 } poison, ptr %exn19, 0
  %lpad.val20 = insertvalue { ptr, i32 } %lpad.val, i32 %sel, 1
  resume { ptr, i32 } %lpad.val20

terminate.lpad:                                   ; preds = %lpad10
  %16 = landingpad { ptr, i32 }
          catch ptr null
  %17 = extractvalue { ptr, i32 } %16, 0
  call void @__clang_call_terminate(ptr %17) #13
  unreachable

unreachable:                                      ; preds = %invoke.cont17
  unreachable
}