; Function Attrs: mustprogress uwtable
define void @_ZN7Imf_3_218SampleCountChannel5clearEv(ptr nocapture noundef nonnull align 8 dereferenceable(104) %this) local_unnamed_addr #3 align 2 personality ptr @__gxx_personality_v0 {
entry:
  %ref.tmp = alloca %"class.Imath_3_2::Box", align 16
  %_numPixels.i = getelementptr inbounds i8, ptr %this, i64 40
  %0 = load i64, ptr %_numPixels.i, align 8
  %cmp6.not = icmp eq i64 %0, 0
  br i1 %cmp6.not, label %invoke.cont7, label %for.body.lr.ph

for.body.lr.ph:                                   ; preds = %entry
  %_numSamples = getelementptr inbounds i8, ptr %this, i64 48
  %_sampleListSizes = getelementptr inbounds i8, ptr %this, i64 64
  %_sampleListPositions = getelementptr inbounds i8, ptr %this, i64 72
  br label %for.body

for.body:                                         ; preds = %for.body.lr.ph, %for.body
  %i.07 = phi i64 [ 0, %for.body.lr.ph ], [ %inc, %for.body ]
  %1 = load ptr, ptr %_numSamples, align 8
  %arrayidx = getelementptr inbounds i32, ptr %1, i64 %i.07
  store i32 0, ptr %arrayidx, align 4
  %2 = load ptr, ptr %_sampleListSizes, align 8
  %arrayidx2 = getelementptr inbounds i32, ptr %2, i64 %i.07
  store i32 0, ptr %arrayidx2, align 4
  %3 = load ptr, ptr %_sampleListPositions, align 8
  %arrayidx3 = getelementptr inbounds i64, ptr %3, i64 %i.07
  store i64 0, ptr %arrayidx3, align 8
  %inc = add nuw i64 %i.07, 1
  %4 = load i64, ptr %_numPixels.i, align 8
  %cmp = icmp ult i64 %inc, %4
  br i1 %cmp, label %for.body, label %invoke.cont7, !llvm.loop !8

lpad:                                             ; preds = %invoke.cont7
  %5 = landingpad { ptr, i32 }
          catch ptr null
  %6 = extractvalue { ptr, i32 } %5, 0
  %7 = tail call ptr @__cxa_begin_catch(ptr %6) #13
  %8 = load ptr, ptr %_level.i.i, align 8
  %_image.i = getelementptr inbounds i8, ptr %8, i64 8
  %9 = load ptr, ptr %_image.i, align 8
  store <4 x i32> <i32 0, i32 0, i32 -1, i32 -1>, ptr %ref.tmp, align 16
  invoke void @_ZN7Imf_3_25Image6resizeERKN9Imath_3_23BoxINS1_4Vec2IiEEEE(ptr noundef nonnull align 8 dereferenceable(104) %9, ptr noundef nonnull align 4 dereferenceable(16) %ref.tmp)
          to label %invoke.cont17 unwind label %lpad10

invoke.cont17:                                    ; preds = %lpad
  invoke void @__cxa_rethrow() #16
          to label %unreachable unwind label %lpad10

invoke.cont7:                                     ; preds = %for.body, %entry
  %_totalNumSamples = getelementptr inbounds i8, ptr %this, i64 80
  %_level.i.i = getelementptr inbounds i8, ptr %this, i64 8
  tail call void @llvm.memset.p0.i64(ptr noundef nonnull align 8 dereferenceable(24) %_totalNumSamples, i8 0, i64 24, i1 false)
  %10 = load ptr, ptr %_level.i.i, align 8
  invoke void @_ZN7Imf_3_214DeepImageLevel21initializeSampleListsEv(ptr noundef nonnull align 8 dereferenceable(192) %10)
          to label %try.cont unwind label %lpad

lpad10:                                           ; preds = %invoke.cont17, %lpad
  %11 = landingpad { ptr, i32 }
          cleanup
  invoke void @__cxa_end_catch()
          to label %eh.resume unwind label %terminate.lpad

try.cont:                                         ; preds = %invoke.cont7
  ret void

eh.resume:                                        ; preds = %lpad10
  resume { ptr, i32 } %11

terminate.lpad:                                   ; preds = %lpad10
  %12 = landingpad { ptr, i32 }
          catch ptr null
  %13 = extractvalue { ptr, i32 } %12, 0
  call void @__clang_call_terminate(ptr %13) #17
  unreachable

unreachable:                                      ; preds = %invoke.cont17
  unreachable
}